target datalayout = "e-m:e-p270:32:32-p271:32:32-p272:64:64-i64:64-i128:128-f80:128-n8:16:32:64-S128"
target triple = "x86_64-pc-linux-gnu"

%struct.SDL_IOStreamInterface = type { i32, ptr, ptr, ptr, ptr, ptr, ptr }
%struct.SDL_IOStream = type { %struct.SDL_IOStreamInterface, ptr, i32, i32 }

@.str.2 = private unnamed_addr constant [26 x i8] c"Parameter '%s' is invalid\00", align 1
@.str.12 = private unnamed_addr constant [6 x i8] c"iface\00", align 1
@.str.13 = private unnamed_addr constant [67 x i8] c"Invalid interface, should be initialized with SDL_INIT_INTERFACE()\00", align 1

; Function Attrs: nounwind uwtable
define hidden ptr @SDL_OpenIO_REAL(ptr noundef %0, ptr noundef %1) #0 {
  %3 = alloca ptr, align 8
  %4 = alloca ptr, align 8
  %5 = alloca ptr, align 8
  %6 = alloca ptr, align 8
  store ptr %0, ptr %4, align 8
  store ptr %1, ptr %5, align 8
  %7 = load ptr, ptr %4, align 8
  %8 = icmp ne ptr %7, null
  br i1 %8, label %11, label %9

9:                                                ; preds = %2
  %10 = call zeroext i1 (ptr, ...) @SDL_SetError_REAL(ptr noundef @.str.2, ptr noundef @.str.12)
  store ptr null, ptr %3, align 8
  br label %32

11:                                               ; preds = %2
  %12 = load ptr, ptr %4, align 8
  %13 = getelementptr inbounds nuw %struct.SDL_IOStreamInterface, ptr %12, i32 0, i32 0
  %14 = load i32, ptr %13, align 8
  %15 = zext i32 %14 to i64
  %16 = icmp ult i64 %15, 56
  br i1 %16, label %17, label %19

17:                                               ; preds = %11
  %18 = call zeroext i1 (ptr, ...) @SDL_SetError_REAL(ptr noundef @.str.13)
  store ptr null, ptr %3, align 8
  br label %32

19:                                               ; preds = %11
  call void @llvm.lifetime.start.p0(i64 8, ptr %6) #11
  %20 = call noalias ptr @SDL_calloc_REAL(i64 noundef 1, i64 noundef 72) #12
  store ptr %20, ptr %6, align 8
  %21 = load ptr, ptr %6, align 8
  %22 = icmp ne ptr %21, null
  br i1 %22, label %23, label %30

23:                                               ; preds = %19
  %24 = load ptr, ptr %6, align 8
  %25 = getelementptr inbounds nuw %struct.SDL_IOStream, ptr %24, i32 0, i32 0
  %26 = load ptr, ptr %4, align 8
  call void @llvm.memcpy.p0.p0.i64(ptr align 8 %25, ptr align 8 %26, i64 56, i1 false)
  %27 = load ptr, ptr %5, align 8
  %28 = load ptr, ptr %6, align 8
  %29 = getelementptr inbounds nuw %struct.SDL_IOStream, ptr %28, i32 0, i32 1
  store ptr %27, ptr %29, align 8
  br label %30

30:                                               ; preds = %23, %19
  %31 = load ptr, ptr %6, align 8
  store ptr %31, ptr %3, align 8
  call void @llvm.lifetime.end.p0(i64 8, ptr %6) #11
  br label %32

32:                                               ; preds = %30, %17, %9
  %33 = load ptr, ptr %3, align 8
  ret ptr %33
}