; Function Attrs: nounwind uwtable
define hidden noalias noundef ptr @SDL_OpenIO_REAL(ptr noundef readonly captures(address_is_null) %0, ptr noundef %1) local_unnamed_addr #0 {
  %.not = icmp eq ptr %0, null
  br i1 %.not, label %3, label %5

3:                                                ; preds = %2
  %4 = tail call zeroext i1 (ptr, ...) @SDL_SetError_REAL(ptr noundef nonnull @.str.2, ptr noundef nonnull @.str.12) #18
  br label %14

5:                                                ; preds = %2
  %6 = load i32, ptr %0, align 8
  %7 = icmp ult i32 %6, 56
  br i1 %7, label %8, label %10

8:                                                ; preds = %5
  %9 = tail call zeroext i1 (ptr, ...) @SDL_SetError_REAL(ptr noundef nonnull @.str.13) #18
  br label %14

10:                                               ; preds = %5
  %11 = tail call noalias dereferenceable_or_null(72) ptr @SDL_calloc_REAL(i64 noundef 1, i64 noundef 72) #17
  %.not11 = icmp eq ptr %11, null
  br i1 %.not11, label %14, label %12

12:                                               ; preds = %10
  tail call void @llvm.memcpy.p0.p0.i64(ptr noundef nonnull align 8 dereferenceable(56) %11, ptr noundef nonnull align 8 dereferenceable(56) %0, i64 56, i1 false)
  %13 = getelementptr inbounds nuw i8, ptr %11, i64 56
  store ptr %1, ptr %13, align 8
  br label %14

14:                                               ; preds = %10, %12, %8, %3
  %.0 = phi ptr [ null, %8 ], [ null, %3 ], [ %11, %12 ], [ null, %10 ]
  ret ptr %.0
}